target datalayout = "e-m:e-p270:32:32-p271:32:32-p272:64:64-i64:64-i128:128-f80:128-n8:16:32:64-S128"
target triple = "x86_64-unknown-linux-gnu"

%"class.sat::literal" = type { i32 }
%class.symbol = type { ptr }
%"class.sat::extension" = type { ptr, i8, i32, %class.symbol, ptr }
%class.svector.5 = type { %class.vector.6 }
%class.vector.6 = type { ptr }
%class.vector.9 = type { ptr }
%class.svector.3 = type { %class.vector.4 }
%class.vector.4 = type { ptr }
%class.svector.1 = type { %class.vector.2 }
%class.vector.2 = type { ptr }
%class.svector.27 = type { %class.vector.28 }
%class.vector.28 = type { ptr }
%"class.sat::solver" = type { %"class.sat::solver_core", i8, [7 x i8], %"struct.sat::config", %"struct.sat::stats", %class.scoped_ptr.153, %class.scoped_ptr.154, ptr, %"class.sat::drat", [2 x %"class.sat::clause_allocator"], i8, %class.random_gen, %"class.sat::cleaner", %class.svector.161, %"class.sat::model_converter", i8, %"class.sat::simplifier", %"class.sat::scc", %"class.sat::asymm_branch", %"class.sat::probing", i8, [7 x i8], %"class.sat::mus", %"class.sat::binspr", i8, i8, [6 x i8], %"class.sat::justification", %"class.sat::literal", %class.ptr_vector.37, %class.ptr_vector.37, i32, %class.svector.1, %class.svector.1, %class.svector.1, %class.svector.1, %class.vector.181, %class.svector.161, %class.svector.182, %class.svector.5, %class.svector.5, %class.svector.5, %class.svector.5, %class.svector.5, %class.svector.1, %class.svector.1, i32, %class.svector.3, %class.svector.1, i32, %class.svector.184, %class.svector.184, %class.svector.184, %class.svector.184, %class.svector.184, i32, double, %class.svector.5, %class.svector.5, %class.svector.5, %class.svector.170, i32, i32, i32, i32, i32, i32, %"struct.sat::backoff", i32, i32, %"struct.sat::backoff", %"struct.sat::backoff", %class.var_queue, i32, i32, i32, %class.ema, %class.ema, %class.ema, %class.ema, %class.ema, %class.svector.3, %class.svector.172, %"class.std::__cxx11::basic_string", i8, %class.visit_helper, %class.svector.186, %class.scoped_limit_trail, %class.stopwatch, %class.params_ref, %"struct.sat::no_drat_params", %class.scoped_ptr.179, %class.svector.3, %"class.sat::literal_set", %"class.sat::literal_set", %class.svector.3, i32, i32, i32, i32, i8, ptr, ptr, %class.statistics, i32, i32, i32, i32, i8, i32, i32, i32, i32, i32, i32, i32, double, i32, double, i8, i8, %class.svector.3, i8, %class.svector.184, i32, i32, i32, %class.svector.3, %class.svector.3, %class.svector.170, %class.svector.1, %class.approx_set_tpl, %class.svector.3, %class.svector.3, %class.vector.39, %class.svector.3, %class.svector.177, %class.u_map, %class.svector.3 }
%"class.sat::solver_core" = type { ptr, ptr }
%"struct.sat::config" = type <{ i64, i32, i32, i32, i8, [3 x i8], i32, i32, double, i32, i8, [3 x i8], i32, i8, [3 x i8], i32, [4 x i8], double, double, i32, i32, double, double, i32, [4 x i8], %class.symbol, double, i32, i32, i8, [3 x i8], i32, i32, i8, [3 x i8], i32, i8, [3 x i8], i32, i8, [3 x i8], i32, i8, i8, i8, i8, i32, i8, i8, i8, i8, i8, i8, i8, i8, i32, i8, i8, i8, i8, i32, double, i32, [4 x i8], double, double, double, double, i32, i8, i8, [2 x i8], double, i8, i8, [2 x i8], i32, double, i32, i32, i32, i32, i32, i32, i32, i32, i8, i8, i8, i8, i32, i32, i8, i8, i8, i8, i8, i8, i8, [5 x i8], %class.symbol, i8, i8, i8, i8, i8, i8, [2 x i8], i32, i32, i32, i8, [3 x i8], double, double, double, double, double, i8, [7 x i8] }>
%"struct.sat::stats" = type { i32, i32, i32, i32, i32, i32, i32, i32, i32, i32, i32, i32, i32, i32, i32, i32, i32, i32, i32, i32, i32 }
%class.scoped_ptr.153 = type { ptr }
%class.scoped_ptr.154 = type { ptr }
%"class.sat::drat" = type { ptr, %class.svector.155, ptr, %"class.sat::clause_allocator", ptr, ptr, %class.svector.157, %class.svector.159, %class.vector.39, %class.svector.161, i8, i8, i8, i8, i8, %"struct.sat::drat::stats" }
%class.svector.155 = type { %class.vector.156 }
%class.vector.156 = type { ptr }
%"class.sat::clause_allocator" = type { %class.sat_allocator, %class.id_gen }
%class.sat_allocator = type { ptr, i64, %class.ptr_vector.33, ptr, [65 x %class.ptr_vector.35] }
%class.ptr_vector.33 = type { %class.vector.34 }
%class.vector.34 = type { ptr }
%class.ptr_vector.35 = type { %class.vector.36 }
%class.vector.36 = type { ptr }
%class.id_gen = type { i32, %class.svector.1 }
%class.svector.157 = type { %class.vector.158 }
%class.vector.158 = type { ptr }
%class.svector.159 = type { %class.vector.160 }
%class.vector.160 = type { ptr }
%"struct.sat::drat::stats" = type { i32, i32, i32, i32 }
%class.random_gen = type { i32 }
%"class.sat::cleaner" = type { ptr, i32, i32, i32, i32 }
%"class.sat::model_converter" = type { %class.vector.163, i32, %class.svector.5, ptr, %class.svector.164 }
%class.vector.163 = type { ptr }
%class.svector.164 = type { %class.vector.165 }
%class.vector.165 = type { ptr }
%"class.sat::simplifier" = type { ptr, i32, %"class.sat::use_list", %"class.sat::ext_use_list", %"class.sat::clause_set", %class.svector.168, i32, %class.tracked_uint_set, i8, %"class.sat::tmp_clause", %class.svector.170, i32, i32, i8, i8, i8, i8, i32, i8, i8, i32, i8, i32, i8, i8, i32, i32, i32, i32, i32, i32, i32, i32, i32, i32, i8, i32, i8, i8, i32, i32, i32, i32, i32, i32, i32, i32, i32, i32, i32, i8, i32, %class.ptr_vector.37, %class.svector.3, %class.svector.172, %class.svector.172, %class.svector.3 }
%"class.sat::use_list" = type { %class.vector.166 }
%class.vector.166 = type { ptr }
%"class.sat::ext_use_list" = type { %class.vector.167 }
%class.vector.167 = type { ptr }
%"class.sat::clause_set" = type { %class.svector.1, %class.ptr_vector.37 }
%class.svector.168 = type { %class.vector.169 }
%class.vector.169 = type { ptr }
%class.tracked_uint_set = type { %class.svector.170, %class.svector.1 }
%"class.sat::tmp_clause" = type { ptr }
%"class.sat::scc" = type { ptr, i8, i8, i32, i32, %"class.sat::big" }
%"class.sat::big" = type { ptr, i32, %class.vector.9, %class.svector.5, %class.svector.27, %class.svector.27, %class.svector.3, %class.svector.3, i8, i8, %class.vector.9 }
%"class.sat::asymm_branch" = type { ptr, %class.params_ref, i64, %class.random_gen, i32, i32, i8, i32, i32, i8, i8, i64, i32, i32, i32, %class.svector.3, %class.svector.3, %class.svector.174, %class.svector.174, %class.svector.3, %class.svector.3 }
%class.svector.174 = type { %class.vector.175 }
%class.vector.175 = type { ptr }
%"class.sat::probing" = type { ptr, i32, %"class.sat::literal_set", %class.svector.3, i32, i8, i32, i8, i8, i64, i32, %class.vector.176, %class.svector.177, %"class.sat::big" }
%class.vector.176 = type { ptr }
%"class.sat::mus" = type <{ ptr, %class.svector.3, %class.svector.3, i8, [7 x i8], %class.svector.161, i32, [4 x i8] }>
%"class.sat::binspr" = type <{ ptr, %class.scoped_ptr.179, i32, i32, %class.vector.180, i32, i32, %class.svector.5, %class.svector.5, %class.svector.3, %class.svector.3, i32, i32, i32, i32, i32, [4 x i32], [5 x i32], [5 x i32], [4 x i8] }>
%class.vector.180 = type { ptr }
%"class.sat::justification" = type <{ i32, [4 x i8], i64, i32, [4 x i8] }>
%class.ptr_vector.37 = type { %class.vector.38 }
%class.vector.38 = type { ptr }
%class.vector.181 = type { ptr }
%class.svector.161 = type { %class.vector.162 }
%class.vector.162 = type { ptr }
%class.svector.182 = type { %class.vector.183 }
%class.vector.183 = type { ptr }
%"struct.sat::backoff" = type { i32, i32, i32, i32, i32 }
%class.var_queue = type { %class.heap }
%class.heap = type { %"struct.var_queue<svector<unsigned int>>::lt", %class.svector.27, %class.svector.27 }
%"struct.var_queue<svector<unsigned int>>::lt" = type { ptr }
%class.ema = type { double, double, double, i32, i32 }
%class.svector.172 = type { %class.vector.173 }
%class.vector.173 = type { ptr }
%"class.std::__cxx11::basic_string" = type { %"struct.std::__cxx11::basic_string<char>::_Alloc_hider", i64, %union.anon }
%"struct.std::__cxx11::basic_string<char>::_Alloc_hider" = type { ptr }
%union.anon = type { i64, [8 x i8] }
%class.visit_helper = type { %class.svector.1, i32, i32 }
%class.svector.186 = type { %class.vector.187 }
%class.vector.187 = type { ptr }
%class.scoped_limit_trail = type { %class.svector.1, i32, i32 }
%class.stopwatch = type <{ %"class.std::chrono::time_point", %"class.std::chrono::duration", i8, [7 x i8] }>
%"class.std::chrono::time_point" = type { %"class.std::chrono::duration" }
%"class.std::chrono::duration" = type { i64 }
%class.params_ref = type { ptr }
%"struct.sat::no_drat_params" = type { %class.params_ref }
%class.scoped_ptr.179 = type { ptr }
%"class.sat::literal_set" = type { %class.tracked_uint_set }
%class.statistics = type { %class.svector.188, %class.svector.190 }
%class.svector.188 = type { %class.vector.189 }
%class.vector.189 = type { ptr }
%class.svector.190 = type { %class.vector.191 }
%class.vector.191 = type { ptr }
%class.svector.184 = type { %class.vector.185 }
%class.vector.185 = type { ptr }
%class.svector.170 = type { %class.vector.171 }
%class.vector.171 = type { ptr }
%class.approx_set_tpl = type { i32 }
%class.vector.39 = type { ptr }
%class.svector.177 = type { %class.vector.178 }
%class.vector.178 = type { ptr }
%class.u_map = type { %class.map.192 }
%class.map.192 = type { %class.table2map.193 }
%class.table2map.193 = type { %class.core_hashtable.194 }
%class.core_hashtable.194 = type <{ ptr, i32, i32, i32, [4 x i8] }>
%"struct.bv::solver::bv_justification" = type { i32, i32, i32, i32, %"class.sat::literal", %"class.sat::literal", ptr, ptr, ptr }
%"class.sat::constraint_base" = type { ptr, [0 x i32] }

; Function Attrs: mustprogress uwtable
define linkonce_odr hidden noundef ptr @_ZN3sat15constraint_base12mem2base_ptrEPKv(ptr noundef %mem) #5 comdat align 2 {
entry:
  %mem.addr = alloca ptr, align 8
  store ptr %mem, ptr %mem.addr, align 8
  %0 = load ptr, ptr %mem.addr, align 8
  %call = call noundef i64 @_ZN3sat15constraint_base8ext_sizeEv()
  %idx.neg = sub i64 0, %call
  %add.ptr = getelementptr inbounds i8, ptr %0, i64 %idx.neg
  ret ptr %add.ptr
}

; Function Attrs: mustprogress nounwind uwtable
define linkonce_odr hidden void @_ZN3sat13justificationC2EjmNS0_4kindE(ptr noundef nonnull align 8 dereferenceable(20) %this, i32 noundef %lvl, i64 noundef %idx, i32 noundef %k) unnamed_addr #4 comdat align 2 {
entry:
  %this.addr = alloca ptr, align 8
  %lvl.addr = alloca i32, align 4
  %idx.addr = alloca i64, align 8
  %k.addr = alloca i32, align 4
  store ptr %this, ptr %this.addr, align 8
  store i32 %lvl, ptr %lvl.addr, align 4
  store i64 %idx, ptr %idx.addr, align 8
  store i32 %k, ptr %k.addr, align 4
  %this1 = load ptr, ptr %this.addr, align 8
  %m_level = getelementptr inbounds %"class.sat::justification", ptr %this1, i32 0, i32 0
  %0 = load i32, ptr %lvl.addr, align 4
  store i32 %0, ptr %m_level, align 8
  %m_val1 = getelementptr inbounds %"class.sat::justification", ptr %this1, i32 0, i32 2
  %1 = load i64, ptr %idx.addr, align 8
  store i64 %1, ptr %m_val1, align 8
  %m_val2 = getelementptr inbounds %"class.sat::justification", ptr %this1, i32 0, i32 3
  %2 = load i32, ptr %k.addr, align 4
  store i32 %2, ptr %m_val2, align 8
  ret void
}

; Function Attrs: mustprogress uwtable
define linkonce_odr hidden noundef i64 @_ZN3sat15constraint_base8mem2baseEPKv(ptr noundef %mem) #5 comdat align 2 {
entry:
  %mem.addr = alloca ptr, align 8
  store ptr %mem, ptr %mem.addr, align 8
  %0 = load ptr, ptr %mem.addr, align 8
  %call = call noundef ptr @_ZN3sat15constraint_base12mem2base_ptrEPKv(ptr noundef %0)
  %1 = ptrtoint ptr %call to i64
  ret i64 %1
}

; Function Attrs: mustprogress nounwind uwtable
define linkonce_odr hidden noundef i64 @_ZN3sat15constraint_base8ext_sizeEv() #4 comdat align 2 {
entry:
  ret i64 8
}

; Function Attrs: mustprogress nounwind uwtable
define linkonce_odr hidden noundef i64 @_ZN3sat15constraint_base8obj_sizeEm(i64 noundef %sz) #4 comdat align 2 {
entry:
  %sz.addr = alloca i64, align 8
  store i64 %sz, ptr %sz.addr, align 8
  %call = call noundef i64 @_ZN3sat15constraint_base8ext_sizeEv()
  %0 = load i64, ptr %sz.addr, align 8
  %add = add i64 %call, %0
  ret i64 %add
}

; Function Attrs: mustprogress uwtable
define linkonce_odr hidden void @_ZN3sat13justification20mk_ext_justificationEjm(ptr noalias sret(%"class.sat::justification") align 8 %agg.result, i32 noundef %lvl, i64 noundef %idx) #5 comdat align 2 {
entry:
  %lvl.addr = alloca i32, align 4
  %idx.addr = alloca i64, align 8
  store i32 %lvl, ptr %lvl.addr, align 4
  store i64 %idx, ptr %idx.addr, align 8
  %0 = load i32, ptr %lvl.addr, align 4
  %1 = load i64, ptr %idx.addr, align 8
  call void @_ZN3sat13justificationC2EjmNS0_4kindE(ptr noundef nonnull align 8 dereferenceable(20) %agg.result, i32 noundef %0, i64 noundef %1, i32 noundef 3)
  ret void
}

; Function Attrs: mustprogress uwtable
define linkonce_odr hidden noundef i64 @_ZNK2bv6solver16bv_justification8to_indexEv(ptr noundef nonnull align 8 dereferenceable(48) %this) #5 comdat align 2 {
entry:
  %this.addr = alloca ptr, align 8
  store ptr %this, ptr %this.addr, align 8
  %this1 = load ptr, ptr %this.addr, align 8
  %call = call noundef i64 @_ZN3sat15constraint_base8mem2baseEPKv(ptr noundef %this1)
  ret i64 %call
}

; Function Attrs: mustprogress nounwind uwtable
define linkonce_odr hidden noundef i32 @_ZNK3sat6solver9scope_lvlEv(ptr noundef nonnull align 8 dereferenceable(4408) %this) #4 comdat align 2 {
entry:
  %this.addr = alloca ptr, align 8
  store ptr %this, ptr %this.addr, align 8
  %this1 = load ptr, ptr %this.addr, align 8
  %m_scope_lvl = getelementptr inbounds %"class.sat::solver", ptr %this1, i32 0, i32 74
  %0 = load i32, ptr %m_scope_lvl, align 4
  ret i32 %0
}

; Function Attrs: mustprogress nounwind uwtable
define linkonce_odr hidden noundef nonnull align 8 dereferenceable(4408) ptr @_ZN3sat9extension1sEv(ptr noundef nonnull align 8 dereferenceable(32) %this) #4 comdat align 2 {
entry:
  %this.addr = alloca ptr, align 8
  store ptr %this, ptr %this.addr, align 8
  %this1 = load ptr, ptr %this.addr, align 8
  %m_solver = getelementptr inbounds %"class.sat::extension", ptr %this1, i32 0, i32 4
  %0 = load ptr, ptr %m_solver, align 8
  ret ptr %0
}

; Function Attrs: mustprogress nounwind uwtable
define linkonce_odr hidden void @_ZN2bv6solver16bv_justificationC2EjiiN3sat7literalES3_(ptr noundef nonnull align 8 dereferenceable(48) %this, i32 noundef %idx, i32 noundef %v1, i32 noundef %v2, i32 %c.coerce, i32 %a.coerce) unnamed_addr #4 comdat align 2 {
entry:
  %c = alloca %"class.sat::literal", align 4
  %a = alloca %"class.sat::literal", align 4
  %this.addr = alloca ptr, align 8
  %idx.addr = alloca i32, align 4
  %v1.addr = alloca i32, align 4
  %v2.addr = alloca i32, align 4
  %coerce.dive = getelementptr inbounds %"class.sat::literal", ptr %c, i32 0, i32 0
  store i32 %c.coerce, ptr %coerce.dive, align 4
  %coerce.dive1 = getelementptr inbounds %"class.sat::literal", ptr %a, i32 0, i32 0
  store i32 %a.coerce, ptr %coerce.dive1, align 4
  store ptr %this, ptr %this.addr, align 8
  store i32 %idx, ptr %idx.addr, align 4
  store i32 %v1, ptr %v1.addr, align 4
  store i32 %v2, ptr %v2.addr, align 4
  %this2 = load ptr, ptr %this.addr, align 8
  %m_kind = getelementptr inbounds %"struct.bv::solver::bv_justification", ptr %this2, i32 0, i32 0
  store i32 1, ptr %m_kind, align 8
  %m_idx = getelementptr inbounds %"struct.bv::solver::bv_justification", ptr %this2, i32 0, i32 1
  %0 = load i32, ptr %idx.addr, align 4
  store i32 %0, ptr %m_idx, align 4
  %m_v1 = getelementptr inbounds %"struct.bv::solver::bv_justification", ptr %this2, i32 0, i32 2
  %1 = load i32, ptr %v1.addr, align 4
  store i32 %1, ptr %m_v1, align 8
  %m_v2 = getelementptr inbounds %"struct.bv::solver::bv_justification", ptr %this2, i32 0, i32 3
  %2 = load i32, ptr %v2.addr, align 4
  store i32 %2, ptr %m_v2, align 4
  %m_consequent = getelementptr inbounds %"struct.bv::solver::bv_justification", ptr %this2, i32 0, i32 4
  call void @llvm.memcpy.p0.p0.i64(ptr align 8 %m_consequent, ptr align 4 %c, i64 4, i1 false)
  %m_antecedent = getelementptr inbounds %"struct.bv::solver::bv_justification", ptr %this2, i32 0, i32 5
  call void @llvm.memcpy.p0.p0.i64(ptr align 4 %m_antecedent, ptr align 4 %a, i64 4, i1 false)
  ret void
}

; Function Attrs: mustprogress nounwind uwtable
define linkonce_odr hidden noundef ptr @_ZN3sat15constraint_base7ptr2memEPv(ptr noundef %ptr) #4 comdat align 2 {
entry:
  %ptr.addr = alloca ptr, align 8
  store ptr %ptr, ptr %ptr.addr, align 8
  %0 = load ptr, ptr %ptr.addr, align 8
  %call = call noundef i64 @_ZN3sat15constraint_base8ext_sizeEv()
  %add.ptr = getelementptr inbounds i8, ptr %0, i64 %call
  ret ptr %add.ptr
}

; Function Attrs: mustprogress nounwind uwtable
define linkonce_odr hidden void @_ZN3sat15constraint_base10initializeEPvPNS_9extensionE(ptr noundef %ptr, ptr noundef %ext) #4 comdat align 2 {
entry:
  %ptr.addr = alloca ptr, align 8
  %ext.addr = alloca ptr, align 8
  store ptr %ptr, ptr %ptr.addr, align 8
  store ptr %ext, ptr %ext.addr, align 8
  %0 = load ptr, ptr %ext.addr, align 8
  %1 = load ptr, ptr %ptr.addr, align 8
  %m_ex = getelementptr inbounds %"class.sat::constraint_base", ptr %1, i32 0, i32 0
  store ptr %0, ptr %m_ex, align 8
  ret void
}

; Function Attrs: mustprogress uwtable
define linkonce_odr hidden noundef i64 @_ZN2bv6solver16bv_justification12get_obj_sizeEv() #5 comdat align 2 {
entry:
  %call = call noundef i64 @_ZN3sat15constraint_base8obj_sizeEm(i64 noundef 48)
  ret i64 %call
}

; Function Attrs: mustprogress uwtable
define hidden void @_ZN2bv6solver23mk_ne2bit_justificationEjiiN3sat7literalES2_(ptr noalias sret(%"class.sat::justification") align 8 %agg.result, ptr noundef nonnull align 8 dereferenceable(640) %this, i32 noundef %idx, i32 noundef %v1, i32 noundef %v2, i32 %c.coerce, i32 %a.coerce) #5 align 2 {
entry:
  %c = alloca %"class.sat::literal", align 4
  %a = alloca %"class.sat::literal", align 4
  %this.addr = alloca ptr, align 8
  %idx.addr = alloca i32, align 4
  %v1.addr = alloca i32, align 4
  %v2.addr = alloca i32, align 4
  %mem = alloca ptr, align 8
  %constraint = alloca ptr, align 8
  %agg.tmp = alloca %"class.sat::literal", align 4
  %agg.tmp6 = alloca %"class.sat::literal", align 4
  %coerce.dive = getelementptr inbounds %"class.sat::literal", ptr %c, i32 0, i32 0
  store i32 %c.coerce, ptr %coerce.dive, align 4
  %coerce.dive1 = getelementptr inbounds %"class.sat::literal", ptr %a, i32 0, i32 0
  store i32 %a.coerce, ptr %coerce.dive1, align 4
  store ptr %this, ptr %this.addr, align 8
  store i32 %idx, ptr %idx.addr, align 4
  store i32 %v1, ptr %v1.addr, align 4
  store i32 %v2, ptr %v2.addr, align 4
  %this2 = load ptr, ptr %this.addr, align 8
  %call = call noundef nonnull align 8 dereferenceable(40) ptr @_ZN3euf13th_euf_solver10get_regionEv(ptr noundef nonnull align 8 dereferenceable(108) %this2)
  %call3 = call noundef i64 @_ZN2bv6solver16bv_justification12get_obj_sizeEv()
  %call4 = call noundef ptr @_ZN6region8allocateEm(ptr noundef nonnull align 8 dereferenceable(40) %call, i64 noundef %call3)
  store ptr %call4, ptr %mem, align 8
  %0 = load ptr, ptr %mem, align 8
  call void @_ZN3sat15constraint_base10initializeEPvPNS_9extensionE(ptr noundef %0, ptr noundef %this2)
  %1 = load ptr, ptr %mem, align 8
  %call5 = call noundef ptr @_ZN3sat15constraint_base7ptr2memEPv(ptr noundef %1)
  %2 = load i32, ptr %idx.addr, align 4
  %3 = load i32, ptr %v1.addr, align 4
  %4 = load i32, ptr %v2.addr, align 4
  call void @llvm.memcpy.p0.p0.i64(ptr align 4 %agg.tmp, ptr align 4 %c, i64 4, i1 false)
  call void @llvm.memcpy.p0.p0.i64(ptr align 4 %agg.tmp6, ptr align 4 %a, i64 4, i1 false)
  %coerce.dive7 = getelementptr inbounds %"class.sat::literal", ptr %agg.tmp, i32 0, i32 0
  %5 = load i32, ptr %coerce.dive7, align 4
  %coerce.dive8 = getelementptr inbounds %"class.sat::literal", ptr %agg.tmp6, i32 0, i32 0
  %6 = load i32, ptr %coerce.dive8, align 4
  call void @_ZN2bv6solver16bv_justificationC2EjiiN3sat7literalES3_(ptr noundef nonnull align 8 dereferenceable(48) %call5, i32 noundef %2, i32 noundef %3, i32 noundef %4, i32 %5, i32 %6)
  store ptr %call5, ptr %constraint, align 8
  %call9 = call noundef nonnull align 8 dereferenceable(4408) ptr @_ZN3sat9extension1sEv(ptr noundef nonnull align 8 dereferenceable(32) %this2)
  %call10 = call noundef i32 @_ZNK3sat6solver9scope_lvlEv(ptr noundef nonnull align 8 dereferenceable(4408) %call9)
  %7 = load ptr, ptr %constraint, align 8
  %call11 = call noundef i64 @_ZNK2bv6solver16bv_justification8to_indexEv(ptr noundef nonnull align 8 dereferenceable(48) %7)
  call void @_ZN3sat13justification20mk_ext_justificationEjm(ptr sret(%"class.sat::justification") align 8 %agg.result, i32 noundef %call10, i64 noundef %call11)
  ret void
}